; ModuleID = 'source-C-CXX/49/2166.cpp'
source_filename = "source-C-CXX/49/2166.cpp"
target datalayout = "e-m:e-p270:32:32-p271:32:32-p272:64:64-i64:64-f80:128-n8:16:32:64-S128"
target triple = "x86_64-pc-linux-gnu"

%"class.std::ios_base::Init" = type { i8 }
%"class.std::basic_istream" = type { i32 (...)**, i64, %"class.std::basic_ios" }
%"class.std::basic_ios" = type { %"class.std::ios_base", %"class.std::basic_ostream"*, i8, i8, %"class.std::basic_streambuf"*, %"class.std::ctype"*, %"class.std::num_put"*, %"class.std::num_get"* }
%"class.std::ios_base" = type { i32 (...)**, i64, i64, i32, i32, i32, %"struct.std::ios_base::_Callback_list"*, %"struct.std::ios_base::_Words", [8 x %"struct.std::ios_base::_Words"], i32, %"struct.std::ios_base::_Words"*, %"class.std::locale" }
%"struct.std::ios_base::_Callback_list" = type { %"struct.std::ios_base::_Callback_list"*, void (i32, %"class.std::ios_base"*, i32)*, i32, i32 }
%"struct.std::ios_base::_Words" = type { i8*, i64 }
%"class.std::locale" = type { %"class.std::locale::_Impl"* }
%"class.std::locale::_Impl" = type { i32, %"class.std::locale::facet"**, i64, %"class.std::locale::facet"**, i8** }
%"class.std::locale::facet" = type <{ i32 (...)**, i32, [4 x i8] }>
%"class.std::basic_ostream" = type { i32 (...)**, %"class.std::basic_ios" }
%"class.std::basic_streambuf" = type { i32 (...)**, i8*, i8*, i8*, i8*, i8*, i8*, %"class.std::locale" }
%"class.std::ctype" = type <{ %"class.std::locale::facet.base", [4 x i8], %struct.__locale_struct*, i8, [7 x i8], i32*, i32*, i16*, i8, [256 x i8], [256 x i8], i8, [6 x i8] }>
%"class.std::locale::facet.base" = type <{ i32 (...)**, i32 }>
%struct.__locale_struct = type { [13 x %struct.__locale_data*], i16*, i32*, i32*, [13 x i8*] }
%struct.__locale_data = type opaque
%"class.std::num_put" = type { %"class.std::locale::facet.base", [4 x i8] }
%"class.std::num_get" = type { %"class.std::locale::facet.base", [4 x i8] }

@_ZStL8__ioinit = internal global %"class.std::ios_base::Init" zeroinitializer, align 1
@__dso_handle = external hidden global i8
@_ZSt3cin = external global %"class.std::basic_istream", align 8
@_ZSt4cout = external global %"class.std::basic_ostream", align 8
@llvm.global_ctors = appending global [1 x { i32, void ()*, i8* }] [{ i32, void ()*, i8* } { i32 65535, void ()* @_GLOBAL__sub_I_2166.cpp, i8* null }]

declare void @_ZNSt8ios_base4InitC1Ev(%"class.std::ios_base::Init"* nonnull align 1 dereferenceable(1)) unnamed_addr #0

; Function Attrs: nounwind
declare void @_ZNSt8ios_base4InitD1Ev(%"class.std::ios_base::Init"* nonnull align 1 dereferenceable(1)) unnamed_addr #1

; Function Attrs: nofree nounwind
declare i32 @__cxa_atexit(void (i8*)*, i8*, i8*) local_unnamed_addr #2

; Function Attrs: mustprogress norecurse sspstrong uwtable
define dso_local i32 @main() local_unnamed_addr #3 {
  %1 = alloca [12 x i32], align 16
  %2 = alloca i32, align 4
  %3 = bitcast [12 x i32]* %1 to i8*
  call void @llvm.lifetime.start.p0i8(i64 48, i8* nonnull %3) #7
  %4 = getelementptr inbounds [12 x i32], [12 x i32]* %1, i64 0, i64 0
  store i32 0, i32* %4, align 16, !tbaa !5
  %5 = getelementptr inbounds [12 x i32], [12 x i32]* %1, i64 0, i64 1
  %6 = getelementptr inbounds [12 x i32], [12 x i32]* %1, i64 0, i64 2
  store i32 31, i32* %5, align 4, !tbaa !5
  store i32 59, i32* %6, align 8, !tbaa !5
  %7 = getelementptr inbounds [12 x i32], [12 x i32]* %1, i64 0, i64 3
  store i32 90, i32* %7, align 4, !tbaa !5
  %8 = add nuw nsw i32 90, 30
  %9 = getelementptr inbounds [12 x i32], [12 x i32]* %1, i64 0, i64 4
  store i32 %8, i32* %9, align 16, !tbaa !5
  %10 = add nuw nsw i32 %8, 31
  %11 = getelementptr inbounds [12 x i32], [12 x i32]* %1, i64 0, i64 5
  store i32 %10, i32* %11, align 4, !tbaa !5
  %12 = add nuw nsw i32 %10, 30
  %13 = getelementptr inbounds [12 x i32], [12 x i32]* %1, i64 0, i64 6
  store i32 %12, i32* %13, align 8, !tbaa !5
  %14 = add nuw nsw i32 %12, 31
  %15 = getelementptr inbounds [12 x i32], [12 x i32]* %1, i64 0, i64 7
  store i32 %14, i32* %15, align 4, !tbaa !5
  %16 = add nuw nsw i32 %14, 31
  %17 = getelementptr inbounds [12 x i32], [12 x i32]* %1, i64 0, i64 8
  store i32 %16, i32* %17, align 16, !tbaa !5
  %18 = add nuw nsw i32 %16, 30
  %19 = getelementptr inbounds [12 x i32], [12 x i32]* %1, i64 0, i64 9
  store i32 %18, i32* %19, align 4, !tbaa !5
  %20 = add nuw nsw i32 %18, 31
  %21 = getelementptr inbounds [12 x i32], [12 x i32]* %1, i64 0, i64 10
  store i32 %20, i32* %21, align 8, !tbaa !5
  %22 = add nuw nsw i32 %20, 30
  %23 = getelementptr inbounds [12 x i32], [12 x i32]* %1, i64 0, i64 11
  store i32 %22, i32* %23, align 4, !tbaa !5
  %24 = bitcast i32* %2 to i8*
  call void @llvm.lifetime.start.p0i8(i64 4, i8* nonnull %24) #7
  %25 = call nonnull align 8 dereferenceable(16) %"class.std::basic_istream"* @_ZNSirsERi(%"class.std::basic_istream"* nonnull align 8 dereferenceable(16) @_ZSt3cin, i32* nonnull align 4 dereferenceable(4) %2)
  br label %27

26:                                               ; preds = %69
  call void @llvm.lifetime.end.p0i8(i64 4, i8* nonnull %24) #7
  call void @llvm.lifetime.end.p0i8(i64 48, i8* nonnull %3) #7
  ret i32 0

27:                                               ; preds = %0, %69
  %28 = phi i64 [ 1, %0 ], [ %70, %69 ]
  %29 = add nsw i64 %28, -1
  %30 = getelementptr inbounds [12 x i32], [12 x i32]* %1, i64 0, i64 %29
  %31 = load i32, i32* %30, align 4, !tbaa !5
  %32 = load i32, i32* %2, align 4, !tbaa !5
  %33 = add i32 %31, 12
  %34 = add i32 %33, %32
  %35 = srem i32 %34, 7
  %36 = icmp eq i32 %35, 5
  br i1 %36, label %37, label %69

37:                                               ; preds = %27
  %38 = trunc i64 %28 to i32
  %39 = call nonnull align 8 dereferenceable(8) %"class.std::basic_ostream"* @_ZNSolsEi(%"class.std::basic_ostream"* nonnull align 8 dereferenceable(8) @_ZSt4cout, i32 %38)
  %40 = bitcast %"class.std::basic_ostream"* %39 to i8**
  %41 = load i8*, i8** %40, align 8, !tbaa !9
  %42 = getelementptr i8, i8* %41, i64 -24
  %43 = bitcast i8* %42 to i64*
  %44 = load i64, i64* %43, align 8
  %45 = bitcast %"class.std::basic_ostream"* %39 to i8*
  %46 = add nsw i64 %44, 240
  %47 = getelementptr inbounds i8, i8* %45, i64 %46
  %48 = bitcast i8* %47 to %"class.std::ctype"**
  %49 = load %"class.std::ctype"*, %"class.std::ctype"** %48, align 8, !tbaa !11
  %50 = icmp eq %"class.std::ctype"* %49, null
  br i1 %50, label %51, label %52

51:                                               ; preds = %37
  call void @_ZSt16__throw_bad_castv() #8
  unreachable

52:                                               ; preds = %37
  %53 = getelementptr inbounds %"class.std::ctype", %"class.std::ctype"* %49, i64 0, i32 8
  %54 = load i8, i8* %53, align 8, !tbaa !15
  %55 = icmp eq i8 %54, 0
  br i1 %55, label %59, label %56

56:                                               ; preds = %52
  %57 = getelementptr inbounds %"class.std::ctype", %"class.std::ctype"* %49, i64 0, i32 9, i64 10
  %58 = load i8, i8* %57, align 1, !tbaa !17
  br label %65

59:                                               ; preds = %52
  call void @_ZNKSt5ctypeIcE13_M_widen_initEv(%"class.std::ctype"* nonnull align 8 dereferenceable(570) %49)
  %60 = bitcast %"class.std::ctype"* %49 to i8 (%"class.std::ctype"*, i8)***
  %61 = load i8 (%"class.std::ctype"*, i8)**, i8 (%"class.std::ctype"*, i8)*** %60, align 8, !tbaa !9
  %62 = getelementptr inbounds i8 (%"class.std::ctype"*, i8)*, i8 (%"class.std::ctype"*, i8)** %61, i64 6
  %63 = load i8 (%"class.std::ctype"*, i8)*, i8 (%"class.std::ctype"*, i8)** %62, align 8
  %64 = call signext i8 %63(%"class.std::ctype"* nonnull align 8 dereferenceable(570) %49, i8 signext 10)
  br label %65

65:                                               ; preds = %56, %59
  %66 = phi i8 [ %58, %56 ], [ %64, %59 ]
  %67 = call nonnull align 8 dereferenceable(8) %"class.std::basic_ostream"* @_ZNSo3putEc(%"class.std::basic_ostream"* nonnull align 8 dereferenceable(8) %39, i8 signext %66)
  %68 = call nonnull align 8 dereferenceable(8) %"class.std::basic_ostream"* @_ZNSo5flushEv(%"class.std::basic_ostream"* nonnull align 8 dereferenceable(8) %67)
  br label %69

69:                                               ; preds = %27, %65
  %70 = add nuw nsw i64 %28, 1
  %71 = icmp eq i64 %70, 13
  br i1 %71, label %26, label %27, !llvm.loop !18
}

; Function Attrs: argmemonly mustprogress nofree nosync nounwind willreturn
declare void @llvm.lifetime.start.p0i8(i64 immarg, i8* nocapture) #4

; Function Attrs: argmemonly mustprogress nofree nosync nounwind willreturn
declare void @llvm.lifetime.end.p0i8(i64 immarg, i8* nocapture) #4

declare nonnull align 8 dereferenceable(16) %"class.std::basic_istream"* @_ZNSirsERi(%"class.std::basic_istream"* nonnull align 8 dereferenceable(16), i32* nonnull align 4 dereferenceable(4)) local_unnamed_addr #0

declare nonnull align 8 dereferenceable(8) %"class.std::basic_ostream"* @_ZNSolsEi(%"class.std::basic_ostream"* nonnull align 8 dereferenceable(8), i32) local_unnamed_addr #0

declare nonnull align 8 dereferenceable(8) %"class.std::basic_ostream"* @_ZNSo3putEc(%"class.std::basic_ostream"* nonnull align 8 dereferenceable(8), i8 signext) local_unnamed_addr #0

declare nonnull align 8 dereferenceable(8) %"class.std::basic_ostream"* @_ZNSo5flushEv(%"class.std::basic_ostream"* nonnull align 8 dereferenceable(8)) local_unnamed_addr #0

; Function Attrs: noreturn
declare void @_ZSt16__throw_bad_castv() local_unnamed_addr #5

declare void @_ZNKSt5ctypeIcE13_M_widen_initEv(%"class.std::ctype"* nonnull align 8 dereferenceable(570)) local_unnamed_addr #0

; Function Attrs: sspstrong uwtable
define internal void @_GLOBAL__sub_I_2166.cpp() #6 section ".text.startup" {
  tail call void @_ZNSt8ios_base4InitC1Ev(%"class.std::ios_base::Init"* nonnull align 1 dereferenceable(1) @_ZStL8__ioinit)
  %1 = tail call i32 @__cxa_atexit(void (i8*)* bitcast (void (%"class.std::ios_base::Init"*)* @_ZNSt8ios_base4InitD1Ev to void (i8*)*), i8* getelementptr inbounds (%"class.std::ios_base::Init", %"class.std::ios_base::Init"* @_ZStL8__ioinit, i64 0, i32 0), i8* nonnull @__dso_handle) #7
  ret void
}


!llvm.module.flags = !{!0, !1, !2, !3}
!llvm.ident = !{!4}

!0 = !{i32 1, !"wchar_size", i32 4}
!1 = !{i32 7, !"PIC Level", i32 2}
!2 = !{i32 7, !"PIE Level", i32 2}
!3 = !{i32 7, !"uwtable", i32 1}
!4 = !{!"clang version 13.0.0"}
!5 = !{!6, !6, i64 0}
!6 = !{!"int", !7, i64 0}
!7 = !{!"omnipotent char", !8, i64 0}
!8 = !{!"Simple C++ TBAA"}
!9 = !{!10, !10, i64 0}
!10 = !{!"vtable pointer", !8, i64 0}
!11 = !{!12, !13, i64 240}
!12 = !{!"_ZTSSt9basic_iosIcSt11char_traitsIcEE", !13, i64 216, !7, i64 224, !14, i64 225, !13, i64 232, !13, i64 240, !13, i64 248, !13, i64 256}
!13 = !{!"any pointer", !7, i64 0}
!14 = !{!"bool", !7, i64 0}
!15 = !{!16, !7, i64 56}
!16 = !{!"_ZTSSt5ctypeIcE", !13, i64 16, !14, i64 24, !13, i64 32, !13, i64 40, !13, i64 48, !7, i64 56, !7, i64 57, !7, i64 313, !7, i64 569}
!17 = !{!7, !7, i64 0}
!18 = distinct !{!18, !19}
!19 = !{!"llvm.loop.mustprogress"}
